; Function Attrs: mustprogress nofree norecurse nosync nounwind willreturn memory(argmem: read) uwtable
define { i8, double } @_ZNK8QuantLib17CreditDefaultSwap7upfrontEv(ptr nocapture noundef nonnull readonly align 8 dereferenceable(320) %this) local_unnamed_addr #13 align 2 {
entry:
  %upfront_ = getelementptr inbounds nuw i8, ptr %this, i64 120
  %retval.sroa.0.0.copyload = load i8, ptr %upfront_, align 8
  %retval.sroa.21.0.upfront_.sroa_idx = getelementptr inbounds i8, ptr %this, i64 128
  %retval.sroa.21.0.copyload = load double, ptr %retval.sroa.21.0.upfront_.sroa_idx, align 8
  %.fca.0.insert = insertvalue { i8, double } poison, i8 %retval.sroa.0.0.copyload, 0
  %.fca.1.insert = insertvalue { i8, double } %.fca.0.insert, double %retval.sroa.21.0.copyload, 1
  ret { i8, double } %.fca.1.insert
}